target datalayout = "e-m:e-p270:32:32-p271:32:32-p272:64:64-i64:64-i128:128-f80:128-n8:16:32:64-S128"
target triple = "x86_64-pc-linux-gnu"

%struct.ssl_st = type { i32, i16, i16, ptr, ptr, ptr, ptr, ptr, i32, i32, ptr, ptr, i32, i32, ptr, ptr, ptr, ptr, ptr, ptr, ptr, ptr, i32, i32, [32 x i8], ptr, ptr, ptr, ptr, ptr, ptr, ptr, i64, %struct.crypto_ex_data_st, ptr, i32, i32, i32, i32, i16, ptr, i32, i64, ptr, ptr, ptr, ptr, ptr, ptr, i32, i32, ptr, ptr, i8, i8, i32 }
%struct.crypto_ex_data_st = type { ptr }
%struct.ssl3_state_st = type { [8 x i8], [8 x i8], [32 x i8], [32 x i8], i8, i8, %struct.ssl3_buffer_st, %struct.ssl3_buffer_st, %struct.ssl3_record_st, i8, i32, i32, i32, i32, ptr, ptr, %struct.env_md_ctx_st, %struct.env_md_ctx_st, i8, i32, [2 x i8], i32, i8, i8, ptr, ptr, ptr, %struct.anon, [64 x i8], i8, [64 x i8], i8, i32, i32, ptr, i64, ptr, i64, i8, [64 x i8] }
%struct.ssl3_buffer_st = type { ptr, i16, i16, i16 }
%struct.ssl3_record_st = type { i8, i16, ptr }
%struct.env_md_ctx_st = type { ptr, ptr, ptr, ptr }
%struct.anon = type { [64 x i8], i32, [64 x i8], i32, i64, i32, ptr, i32, i32, %union.anon, %union.anon.0, i8, i32, ptr, ptr, i64, ptr, i8, i8, i8, i8, i32, i8, ptr, i64, i8, ptr, i8, i8, i8, %struct.ssl_ecdh_ctx_st, ptr, i16 }
%union.anon = type { i32 }
%union.anon.0 = type { i16 }
%struct.ssl_ecdh_ctx_st = type { ptr, ptr }

@.str.1 = private unnamed_addr constant [116 x i8] c"generated/home/dtcxzyw/WorkSpace/Projects/compilers/llvm-opt-benchmark/bench/libquic/libquic/boringssl/ssl/t1_enc.c\00", align 1

; Function Attrs: nounwind uwtable
define internal i32 @append_digest(ptr noundef %0, ptr noundef %1, ptr noundef %2, i64 noundef %3) #0 {
  %5 = alloca ptr, align 8
  %6 = alloca ptr, align 8
  %7 = alloca ptr, align 8
  %8 = alloca i64, align 8
  %9 = alloca i32, align 4
  %10 = alloca %struct.env_md_ctx_st, align 8
  %11 = alloca i32, align 4
  store ptr %0, ptr %5, align 8, !tbaa !72
  store ptr %1, ptr %6, align 8, !tbaa !57
  store ptr %2, ptr %7, align 8, !tbaa !73
  store i64 %3, ptr %8, align 8, !tbaa !53
  call void @llvm.lifetime.start.p0(i64 4, ptr %9) #7
  store i32 0, ptr %9, align 4, !tbaa !11
  call void @llvm.lifetime.start.p0(i64 32, ptr %10) #7
  call void @EVP_MD_CTX_init(ptr noundef %10)
  %12 = load ptr, ptr %5, align 8, !tbaa !72
  %13 = call i64 @EVP_MD_CTX_size(ptr noundef %12)
  %14 = load i64, ptr %8, align 8, !tbaa !53
  %15 = icmp ugt i64 %13, %14
  br i1 %15, label %16, label %17

16:                                               ; preds = %4
  call void @ERR_put_error(i32 noundef 16, i32 noundef 0, i32 noundef 121, ptr noundef @.str.1, i32 noundef 422)
  br label %30

17:                                               ; preds = %4
  %18 = load ptr, ptr %5, align 8, !tbaa !72
  %19 = call i32 @EVP_MD_CTX_copy_ex(ptr noundef %10, ptr noundef %18)
  %20 = icmp ne i32 %19, 0
  br i1 %20, label %21, label %25

21:                                               ; preds = %17
  %22 = load ptr, ptr %6, align 8, !tbaa !57
  %23 = call i32 @EVP_DigestFinal_ex(ptr noundef %10, ptr noundef %22, ptr noundef %11)
  %24 = icmp ne i32 %23, 0
  br i1 %24, label %26, label %25

25:                                               ; preds = %21, %17
  br label %30

26:                                               ; preds = %21
  %27 = load i32, ptr %11, align 4, !tbaa !11
  %28 = zext i32 %27 to i64
  %29 = load ptr, ptr %7, align 8, !tbaa !73
  store i64 %28, ptr %29, align 8, !tbaa !53
  store i32 1, ptr %9, align 4, !tbaa !11
  br label %30

30:                                               ; preds = %26, %25, %16
  %31 = call i32 @EVP_MD_CTX_cleanup(ptr noundef %10)
  %32 = load i32, ptr %9, align 4, !tbaa !11
  call void @llvm.lifetime.end.p0(i64 32, ptr %10) #7
  call void @llvm.lifetime.end.p0(i64 4, ptr %9) #7
  ret i32 %32
}

; Function Attrs: nounwind uwtable
define hidden i32 @tls1_handshake_digest(ptr noundef %0, ptr noundef %1, i64 noundef %2) #0 {
  %4 = alloca i32, align 4
  %5 = alloca ptr, align 8
  %6 = alloca ptr, align 8
  %7 = alloca i64, align 8
  %8 = alloca i64, align 8
  %9 = alloca i32, align 4
  %10 = alloca i64, align 8
  store ptr %0, ptr %5, align 8, !tbaa !6
  store ptr %1, ptr %6, align 8, !tbaa !57
  store i64 %2, ptr %7, align 8, !tbaa !53
  call void @llvm.lifetime.start.p0(i64 8, ptr %8) #7
  store i64 0, ptr %8, align 8, !tbaa !53
  %11 = load ptr, ptr %5, align 8, !tbaa !6
  %12 = getelementptr inbounds nuw %struct.ssl_st, ptr %11, i32 0, i32 14
  %13 = load ptr, ptr %12, align 8, !tbaa !14
  %14 = getelementptr inbounds nuw %struct.ssl3_state_st, ptr %13, i32 0, i32 17
  %15 = call ptr @EVP_MD_CTX_md(ptr noundef %14)
  %16 = icmp ne ptr %15, null
  br i1 %16, label %17, label %27

17:                                               ; preds = %3
  %18 = load ptr, ptr %5, align 8, !tbaa !6
  %19 = getelementptr inbounds nuw %struct.ssl_st, ptr %18, i32 0, i32 14
  %20 = load ptr, ptr %19, align 8, !tbaa !14
  %21 = getelementptr inbounds nuw %struct.ssl3_state_st, ptr %20, i32 0, i32 17
  %22 = load ptr, ptr %6, align 8, !tbaa !57
  %23 = load i64, ptr %7, align 8, !tbaa !53
  %24 = call i32 @append_digest(ptr noundef %21, ptr noundef %22, ptr noundef %8, i64 noundef %23)
  %25 = icmp ne i32 %24, 0
  br i1 %25, label %27, label %26

26:                                               ; preds = %17
  store i32 -1, ptr %4, align 4
  store i32 1, ptr %9, align 4
  br label %47

27:                                               ; preds = %17, %3
  call void @llvm.lifetime.start.p0(i64 8, ptr %10) #7
  %28 = load ptr, ptr %5, align 8, !tbaa !6
  %29 = getelementptr inbounds nuw %struct.ssl_st, ptr %28, i32 0, i32 14
  %30 = load ptr, ptr %29, align 8, !tbaa !14
  %31 = getelementptr inbounds nuw %struct.ssl3_state_st, ptr %30, i32 0, i32 16
  %32 = load ptr, ptr %6, align 8, !tbaa !57
  %33 = load i64, ptr %8, align 8, !tbaa !53
  %34 = getelementptr inbounds nuw i8, ptr %32, i64 %33
  %35 = load i64, ptr %7, align 8, !tbaa !53
  %36 = load i64, ptr %8, align 8, !tbaa !53
  %37 = sub i64 %35, %36
  %38 = call i32 @append_digest(ptr noundef %31, ptr noundef %34, ptr noundef %10, i64 noundef %37)
  %39 = icmp ne i32 %38, 0
  br i1 %39, label %41, label %40

40:                                               ; preds = %27
  store i32 -1, ptr %4, align 4
  store i32 1, ptr %9, align 4
  br label %46

41:                                               ; preds = %27
  %42 = load i64, ptr %8, align 8, !tbaa !53
  %43 = load i64, ptr %10, align 8, !tbaa !53
  %44 = add i64 %42, %43
  %45 = trunc i64 %44 to i32
  store i32 %45, ptr %4, align 4
  store i32 1, ptr %9, align 4
  br label %46

46:                                               ; preds = %41, %40
  call void @llvm.lifetime.end.p0(i64 8, ptr %10) #7
  br label %47

47:                                               ; preds = %46, %26
  call void @llvm.lifetime.end.p0(i64 8, ptr %8) #7
  %48 = load i32, ptr %4, align 4
  ret i32 %48
}