; Function Attrs: nounwind uwtable
define hidden i32 @tls1_handshake_digest(ptr noundef readonly captures(none) %0, ptr noundef %1, i64 noundef %2) local_unnamed_addr #0 {
  %4 = alloca %struct.env_md_ctx_st, align 8
  %5 = alloca i32, align 4
  %6 = alloca %struct.env_md_ctx_st, align 8
  %7 = alloca i32, align 4
  %8 = getelementptr inbounds nuw i8, ptr %0, i64 80
  %9 = load ptr, ptr %8, align 8, !tbaa !6
  %10 = getelementptr inbounds nuw i8, ptr %9, i64 208
  %11 = tail call ptr @EVP_MD_CTX_md(ptr noundef nonnull %10) #8
  %.not = icmp eq ptr %11, null
  br i1 %.not, label %26, label %12

12:                                               ; preds = %3
  %13 = load ptr, ptr %8, align 8, !tbaa !6
  %14 = getelementptr inbounds nuw i8, ptr %13, i64 208
  call void @llvm.lifetime.start.p0(i64 4, ptr nonnull %7)
  call void @llvm.lifetime.start.p0(i64 32, ptr nonnull %6) #8
  call void @EVP_MD_CTX_init(ptr noundef nonnull %6) #8
  %15 = call i64 @EVP_MD_CTX_size(ptr noundef nonnull %14) #8
  %16 = icmp ugt i64 %15, %2
  br i1 %16, label %17, label %18

17:                                               ; preds = %12
  call void @ERR_put_error(i32 noundef 16, i32 noundef 0, i32 noundef 121, ptr noundef nonnull @.str.1, i32 noundef 422) #8
  br label %append_digest.exit.thread

18:                                               ; preds = %12
  %19 = call i32 @EVP_MD_CTX_copy_ex(ptr noundef nonnull %6, ptr noundef nonnull %14) #8
  %.not.i = icmp eq i32 %19, 0
  br i1 %.not.i, label %append_digest.exit.thread, label %20

20:                                               ; preds = %18
  %21 = call i32 @EVP_DigestFinal_ex(ptr noundef nonnull %6, ptr noundef %1, ptr noundef nonnull %7) #8
  %.not5.i = icmp eq i32 %21, 0
  br i1 %.not5.i, label %append_digest.exit.thread, label %append_digest.exit

append_digest.exit.thread:                        ; preds = %17, %20, %18
  %22 = call i32 @EVP_MD_CTX_cleanup(ptr noundef nonnull %6) #8
  call void @llvm.lifetime.end.p0(i64 32, ptr nonnull %6) #8
  call void @llvm.lifetime.end.p0(i64 4, ptr nonnull %7)
  br label %44

append_digest.exit:                               ; preds = %20
  %23 = load i32, ptr %7, align 4, !tbaa !66
  %24 = zext i32 %23 to i64
  %25 = call i32 @EVP_MD_CTX_cleanup(ptr noundef nonnull %6) #8
  call void @llvm.lifetime.end.p0(i64 32, ptr nonnull %6) #8
  call void @llvm.lifetime.end.p0(i64 4, ptr nonnull %7)
  br label %26

26:                                               ; preds = %append_digest.exit, %3
  %.016 = phi i64 [ 0, %3 ], [ %24, %append_digest.exit ]
  %27 = load ptr, ptr %8, align 8, !tbaa !6
  %28 = getelementptr inbounds nuw i8, ptr %27, i64 176
  %29 = getelementptr inbounds nuw i8, ptr %1, i64 %.016
  %30 = sub i64 %2, %.016
  call void @llvm.lifetime.start.p0(i64 4, ptr nonnull %5)
  call void @llvm.lifetime.start.p0(i64 32, ptr nonnull %4) #8
  call void @EVP_MD_CTX_init(ptr noundef nonnull %4) #8
  %31 = call i64 @EVP_MD_CTX_size(ptr noundef nonnull %28) #8
  %32 = icmp ugt i64 %31, %30
  br i1 %32, label %33, label %34

33:                                               ; preds = %26
  call void @ERR_put_error(i32 noundef 16, i32 noundef 0, i32 noundef 121, ptr noundef nonnull @.str.1, i32 noundef 422) #8
  br label %42

34:                                               ; preds = %26
  %35 = call i32 @EVP_MD_CTX_copy_ex(ptr noundef nonnull %4, ptr noundef nonnull %28) #8
  %.not.i9 = icmp eq i32 %35, 0
  br i1 %.not.i9, label %42, label %36

36:                                               ; preds = %34
  %37 = call i32 @EVP_DigestFinal_ex(ptr noundef nonnull %4, ptr noundef %29, ptr noundef nonnull %5) #8
  %.not5.i10 = icmp eq i32 %37, 0
  br i1 %.not5.i10, label %42, label %append_digest.exit12

append_digest.exit12:                             ; preds = %36
  %38 = load i32, ptr %5, align 4, !tbaa !66
  %39 = call i32 @EVP_MD_CTX_cleanup(ptr noundef nonnull %4) #8
  call void @llvm.lifetime.end.p0(i64 32, ptr nonnull %4) #8
  call void @llvm.lifetime.end.p0(i64 4, ptr nonnull %5)
  %40 = trunc nuw i64 %.016 to i32
  %41 = add i32 %38, %40
  br label %44

42:                                               ; preds = %33, %36, %34
  %43 = call i32 @EVP_MD_CTX_cleanup(ptr noundef nonnull %4) #8
  call void @llvm.lifetime.end.p0(i64 32, ptr nonnull %4) #8
  call void @llvm.lifetime.end.p0(i64 4, ptr nonnull %5)
  br label %44

44:                                               ; preds = %42, %append_digest.exit12, %append_digest.exit.thread
  %.0 = phi i32 [ -1, %append_digest.exit.thread ], [ -1, %42 ], [ %41, %append_digest.exit12 ]
  ret i32 %.0
}